target datalayout = "e-m:e-p270:32:32-p271:32:32-p272:64:64-i64:64-i128:128-f80:128-n8:16:32:64-S128"
target triple = "x86_64-pc-linux-gnu"

%"class.absl::Span" = type { ptr, i64 }
%"class.absl::str_format_internal::UntypedFormatSpecImpl" = type { ptr, i64 }
%"class.absl::str_format_internal::FormatRawSinkImpl" = type { ptr, ptr }
%"class.absl::str_format_internal::FILERawSink" = type { ptr, i32, i64 }

; Function Attrs: mustprogress nounwind uwtable
define linkonce_odr dso_local noundef i32 @_ZNSt14numeric_limitsIiE3maxEv() #3 comdat align 2 {
  ret i32 2147483647
}

; Function Attrs: mustprogress nounwind uwtable
define linkonce_odr dso_local noundef i64 @_ZNK4absl19str_format_internal11FILERawSink5countEv(ptr noundef nonnull align 8 dereferenceable(24) %0) #3 comdat align 2 {
  %2 = alloca ptr, align 8
  store ptr %0, ptr %2, align 8, !tbaa !89
  %3 = load ptr, ptr %2, align 8
  %4 = getelementptr inbounds nuw %"class.absl::str_format_internal::FILERawSink", ptr %3, i32 0, i32 2
  %5 = load i64, ptr %4, align 8, !tbaa !94
  ret i64 %5
}

; Function Attrs: mustprogress nounwind uwtable
define linkonce_odr dso_local noundef i32 @_ZNK4absl19str_format_internal11FILERawSink5errorEv(ptr noundef nonnull align 8 dereferenceable(24) %0) #3 comdat align 2 {
  %2 = alloca ptr, align 8
  store ptr %0, ptr %2, align 8, !tbaa !89
  %3 = load ptr, ptr %2, align 8
  %4 = getelementptr inbounds nuw %"class.absl::str_format_internal::FILERawSink", ptr %3, i32 0, i32 1
  %5 = load i32, ptr %4, align 8, !tbaa !93
  ret i32 %5
}

; Function Attrs: mustprogress nounwind uwtable
define linkonce_odr dso_local void @_ZN4absl19str_format_internal17FormatRawSinkImplC2INS0_11FILERawSinkETnPDTclsr19str_format_internalE11InvokeFlushclsr3stdE7declvalIPT_EEcvSt17basic_string_viewIcSt11char_traitsIcEE_EEELPv0EEES5_(ptr noundef nonnull align 8 dereferenceable(16) %0, ptr noundef %1) unnamed_addr #3 comdat align 2 {
  %3 = alloca ptr, align 8
  %4 = alloca ptr, align 8
  store ptr %0, ptr %3, align 8, !tbaa !37
  store ptr %1, ptr %4, align 8, !tbaa !89
  %5 = load ptr, ptr %3, align 8
  %6 = getelementptr inbounds nuw %"class.absl::str_format_internal::FormatRawSinkImpl", ptr %5, i32 0, i32 0
  %7 = load ptr, ptr %4, align 8, !tbaa !89
  store ptr %7, ptr %6, align 8, !tbaa !39
  %8 = getelementptr inbounds nuw %"class.absl::str_format_internal::FormatRawSinkImpl", ptr %5, i32 0, i32 1
  store ptr @_ZN4absl19str_format_internal17FormatRawSinkImpl5FlushINS0_11FILERawSinkEEEvPvSt17basic_string_viewIcSt11char_traitsIcEE, ptr %8, align 8, !tbaa !41
  ret void
}

; Function Attrs: mustprogress nounwind uwtable
define linkonce_odr dso_local void @_ZN4absl19str_format_internal11FILERawSinkC2EP8_IO_FILE(ptr noundef nonnull align 8 dereferenceable(24) %0, ptr noundef %1) unnamed_addr #3 comdat align 2 {
  %3 = alloca ptr, align 8
  %4 = alloca ptr, align 8
  store ptr %0, ptr %3, align 8, !tbaa !89
  store ptr %1, ptr %4, align 8, !tbaa !87
  %5 = load ptr, ptr %3, align 8
  %6 = getelementptr inbounds nuw %"class.absl::str_format_internal::FILERawSink", ptr %5, i32 0, i32 0
  %7 = load ptr, ptr %4, align 8, !tbaa !87
  store ptr %7, ptr %6, align 8, !tbaa !91
  %8 = getelementptr inbounds nuw %"class.absl::str_format_internal::FILERawSink", ptr %5, i32 0, i32 1
  store i32 0, ptr %8, align 8, !tbaa !93
  %9 = getelementptr inbounds nuw %"class.absl::str_format_internal::FILERawSink", ptr %5, i32 0, i32 2
  store i64 0, ptr %9, align 8, !tbaa !94
  ret void
}

; Function Attrs: mustprogress uwtable
define dso_local noundef i32 @_ZN4absl19str_format_internal7FprintFEP8_IO_FILENS0_21UntypedFormatSpecImplENS_4SpanIKNS0_13FormatArgImplEEE(ptr noundef %0, ptr %1, i64 %2, ptr %3, i64 %4) #0 {
  %6 = alloca i32, align 4
  %7 = alloca %"class.absl::str_format_internal::UntypedFormatSpecImpl", align 8
  %8 = alloca %"class.absl::Span", align 8
  %9 = alloca ptr, align 8
  %10 = alloca %"class.absl::str_format_internal::FILERawSink", align 8
  %11 = alloca %"class.absl::str_format_internal::FormatRawSinkImpl", align 8
  %12 = alloca %"class.absl::str_format_internal::UntypedFormatSpecImpl", align 8
  %13 = alloca %"class.absl::Span", align 8
  %14 = alloca i32, align 4
  %15 = getelementptr inbounds nuw { ptr, i64 }, ptr %7, i32 0, i32 0
  store ptr %1, ptr %15, align 8
  %16 = getelementptr inbounds nuw { ptr, i64 }, ptr %7, i32 0, i32 1
  store i64 %2, ptr %16, align 8
  %17 = getelementptr inbounds nuw { ptr, i64 }, ptr %8, i32 0, i32 0
  store ptr %3, ptr %17, align 8
  %18 = getelementptr inbounds nuw { ptr, i64 }, ptr %8, i32 0, i32 1
  store i64 %4, ptr %18, align 8
  store ptr %0, ptr %9, align 8, !tbaa !87
  call void @llvm.lifetime.start.p0(i64 24, ptr %10) #17
  %19 = load ptr, ptr %9, align 8, !tbaa !87
  call void @_ZN4absl19str_format_internal11FILERawSinkC2EP8_IO_FILE(ptr noundef nonnull align 8 dereferenceable(24) %10, ptr noundef %19)
  call void @_ZN4absl19str_format_internal17FormatRawSinkImplC2INS0_11FILERawSinkETnPDTclsr19str_format_internalE11InvokeFlushclsr3stdE7declvalIPT_EEcvSt17basic_string_viewIcSt11char_traitsIcEE_EEELPv0EEES5_(ptr noundef nonnull align 8 dereferenceable(16) %11, ptr noundef %10)
  call void @llvm.memcpy.p0.p0.i64(ptr align 8 %12, ptr align 8 %7, i64 16, i1 false), !tbaa.struct !33
  call void @llvm.memcpy.p0.p0.i64(ptr align 8 %13, ptr align 8 %8, i64 16, i1 false), !tbaa.struct !11
  %20 = getelementptr inbounds nuw { ptr, ptr }, ptr %11, i32 0, i32 0
  %21 = load ptr, ptr %20, align 8
  %22 = getelementptr inbounds nuw { ptr, ptr }, ptr %11, i32 0, i32 1
  %23 = load ptr, ptr %22, align 8
  %24 = getelementptr inbounds nuw { ptr, i64 }, ptr %12, i32 0, i32 0
  %25 = load ptr, ptr %24, align 8
  %26 = getelementptr inbounds nuw { ptr, i64 }, ptr %12, i32 0, i32 1
  %27 = load i64, ptr %26, align 8
  %28 = getelementptr inbounds nuw { ptr, i64 }, ptr %13, i32 0, i32 0
  %29 = load ptr, ptr %28, align 8
  %30 = getelementptr inbounds nuw { ptr, i64 }, ptr %13, i32 0, i32 1
  %31 = load i64, ptr %30, align 8
  %32 = call noundef zeroext i1 @_ZN4absl19str_format_internal13FormatUntypedENS0_17FormatRawSinkImplENS0_21UntypedFormatSpecImplENS_4SpanIKNS0_13FormatArgImplEEE(ptr %21, ptr %23, ptr %25, i64 %27, ptr %29, i64 %31)
  br i1 %32, label %35, label %33

33:                                               ; preds = %5
  %34 = call ptr @__errno_location() #20
  store i32 22, ptr %34, align 4, !tbaa !25
  store i32 -1, ptr %6, align 4
  store i32 1, ptr %14, align 4
  br label %51

35:                                               ; preds = %5
  %36 = call noundef i32 @_ZNK4absl19str_format_internal11FILERawSink5errorEv(ptr noundef nonnull align 8 dereferenceable(24) %10)
  %37 = icmp ne i32 %36, 0
  br i1 %37, label %38, label %41

38:                                               ; preds = %35
  %39 = call noundef i32 @_ZNK4absl19str_format_internal11FILERawSink5errorEv(ptr noundef nonnull align 8 dereferenceable(24) %10)
  %40 = call ptr @__errno_location() #20
  store i32 %39, ptr %40, align 4, !tbaa !25
  store i32 -1, ptr %6, align 4
  store i32 1, ptr %14, align 4
  br label %51

41:                                               ; preds = %35
  %42 = call noundef i64 @_ZNK4absl19str_format_internal11FILERawSink5countEv(ptr noundef nonnull align 8 dereferenceable(24) %10)
  %43 = call noundef i32 @_ZNSt14numeric_limitsIiE3maxEv() #17
  %44 = sext i32 %43 to i64
  %45 = icmp ugt i64 %42, %44
  br i1 %45, label %46, label %48

46:                                               ; preds = %41
  %47 = call ptr @__errno_location() #20
  store i32 27, ptr %47, align 4, !tbaa !25
  store i32 -1, ptr %6, align 4
  store i32 1, ptr %14, align 4
  br label %51

48:                                               ; preds = %41
  %49 = call noundef i64 @_ZNK4absl19str_format_internal11FILERawSink5countEv(ptr noundef nonnull align 8 dereferenceable(24) %10)
  %50 = trunc i64 %49 to i32
  store i32 %50, ptr %6, align 4
  store i32 1, ptr %14, align 4
  br label %51

51:                                               ; preds = %48, %46, %38, %33
  call void @llvm.lifetime.end.p0(i64 24, ptr %10) #17
  %52 = load i32, ptr %6, align 4
  ret i32 %52
}