; Function Attrs: mustprogress uwtable
define dso_local noundef range(i32 -1, -2147483648) i32 @_ZN4absl19str_format_internal7FprintFEP8_IO_FILENS0_21UntypedFormatSpecImplENS_4SpanIKNS0_13FormatArgImplEEE(ptr noundef %0, ptr %1, i64 %2, ptr %3, i64 %4) local_unnamed_addr #0 {
  %6 = alloca %"class.absl::str_format_internal::FILERawSink", align 8
  call void @llvm.lifetime.start.p0(i64 24, ptr nonnull %6) #15
  store ptr %0, ptr %6, align 8, !tbaa !94
  %7 = getelementptr inbounds nuw i8, ptr %6, i64 8
  store i32 0, ptr %7, align 8, !tbaa !97
  %8 = getelementptr inbounds nuw i8, ptr %6, i64 16
  store i64 0, ptr %8, align 8, !tbaa !98
  %9 = call noundef zeroext i1 @_ZN4absl19str_format_internal13FormatUntypedENS0_17FormatRawSinkImplENS0_21UntypedFormatSpecImplENS_4SpanIKNS0_13FormatArgImplEEE(ptr nonnull %6, ptr nonnull @_ZN4absl19str_format_internal17FormatRawSinkImpl5FlushINS0_11FILERawSinkEEEvPvSt17basic_string_viewIcSt11char_traitsIcEE, ptr %1, i64 %2, ptr %3, i64 %4)
  br i1 %9, label %12, label %10

10:                                               ; preds = %5
  %11 = tail call ptr @__errno_location() #20
  store i32 22, ptr %11, align 4, !tbaa !15
  br label %23

12:                                               ; preds = %5
  %13 = load i32, ptr %7, align 8, !tbaa !97
  %.not = icmp eq i32 %13, 0
  br i1 %.not, label %16, label %14

14:                                               ; preds = %12
  %15 = tail call ptr @__errno_location() #20
  store i32 %13, ptr %15, align 4, !tbaa !15
  br label %23

16:                                               ; preds = %12
  %17 = load i64, ptr %8, align 8, !tbaa !98
  %18 = icmp ugt i64 %17, 2147483647
  br i1 %18, label %19, label %21

19:                                               ; preds = %16
  %20 = tail call ptr @__errno_location() #20
  store i32 27, ptr %20, align 4, !tbaa !15
  br label %23

21:                                               ; preds = %16
  %22 = trunc nuw i64 %17 to i32
  br label %23

23:                                               ; preds = %21, %19, %14, %10
  %.0 = phi i32 [ -1, %14 ], [ -1, %19 ], [ %22, %21 ], [ -1, %10 ]
  call void @llvm.lifetime.end.p0(i64 24, ptr nonnull %6) #15
  ret i32 %.0
}